; Function Attrs: mustprogress uwtable
define hidden void @_ZN6google8protobuf2io19LimitingInputStreamC2EPNS1_19ZeroCopyInputStreamEl(ptr noundef nonnull writeonly align 8 captures(none) dereferenceable(32) initializes((0, 32)) %0, ptr noundef %1, i64 noundef %2) unnamed_addr #6 align 2 personality ptr @__gxx_personality_v0 {
  store ptr getelementptr inbounds nuw inrange(-16, 48) (i8, ptr @_ZTVN6google8protobuf2io19LimitingInputStreamE, i64 16), ptr %0, align 8, !tbaa !3
  %4 = getelementptr inbounds nuw i8, ptr %0, i64 8
  store ptr %1, ptr %4, align 8, !tbaa !64
  %5 = getelementptr inbounds nuw i8, ptr %0, i64 16
  store i64 %2, ptr %5, align 8, !tbaa !67
  %6 = load ptr, ptr %1, align 8, !tbaa !3
  %7 = getelementptr inbounds nuw i8, ptr %6, i64 40
  %8 = load ptr, ptr %7, align 8
  %9 = tail call noundef i64 %8(ptr noundef nonnull align 8 dereferenceable(8) %1)
  %10 = getelementptr inbounds nuw i8, ptr %0, i64 24
  store i64 %9, ptr %10, align 8, !tbaa !68
  ret void
}